target datalayout = "e-m:e-p270:32:32-p271:32:32-p272:64:64-i64:64-i128:128-f80:128-n8:16:32:64-S128"
target triple = "x86_64-pc-linux-gnu"

%struct.Aig_ManCut_t_ = type { ptr, ptr, i32, i32, i32, i32, i32, i32, ptr, [4 x ptr] }
%struct.Aig_Man_t_ = type { ptr, ptr, ptr, ptr, ptr, ptr, ptr, %struct.Aig_Obj_t_, i32, i32, i32, i32, i32, i32, [7 x i32], i32, ptr, i32, ptr, i32, ptr, i32, i32, i32, ptr, i32, i32, i32, i32, i32, ptr, ptr, i32, ptr, ptr, i32, ptr, ptr, i32, i32, i32, ptr, ptr, ptr, ptr, ptr, ptr, ptr, ptr, ptr, ptr, ptr, ptr, ptr, ptr, i32, ptr, ptr, ptr, ptr, i32, i64, i64, i64, ptr, ptr }
%struct.Aig_Obj_t_ = type { %union.anon, ptr, ptr, i64, i32, i32, %union.anon.0 }
%union.anon = type { ptr }
%union.anon.0 = type { ptr }
%struct.Aig_Cut_t_ = type { ptr, i32, i32, i32, i16, i8, i8, [0 x i32] }
%struct.Vec_Ptr_t_ = type { i32, i32, ptr }

; Function Attrs: inlinehint nounwind uwtable
define internal ptr @Aig_CutNext(ptr noundef %0) #5 {
  %2 = alloca ptr, align 8
  store ptr %0, ptr %2, align 8, !tbaa !37
  %3 = load ptr, ptr %2, align 8, !tbaa !37
  %4 = load ptr, ptr %2, align 8, !tbaa !37
  %5 = getelementptr inbounds nuw %struct.Aig_Cut_t_, ptr %4, i32 0, i32 4
  %6 = load i16, ptr %5, align 4, !tbaa !47
  %7 = sext i16 %6 to i32
  %8 = sext i32 %7 to i64
  %9 = getelementptr inbounds i8, ptr %3, i64 %8
  ret ptr %9
}

; Function Attrs: inlinehint nounwind uwtable
define internal ptr @Aig_ObjCuts(ptr noundef %0, ptr noundef %1) #5 {
  %3 = alloca ptr, align 8
  %4 = alloca ptr, align 8
  store ptr %0, ptr %3, align 8, !tbaa !10
  store ptr %1, ptr %4, align 8, !tbaa !44
  %5 = load ptr, ptr %3, align 8, !tbaa !10
  %6 = getelementptr inbounds nuw %struct.Aig_ManCut_t_, ptr %5, i32 0, i32 1
  %7 = load ptr, ptr %6, align 8, !tbaa !20
  %8 = load ptr, ptr %4, align 8, !tbaa !44
  %9 = getelementptr inbounds nuw %struct.Aig_Obj_t_, ptr %8, i32 0, i32 5
  %10 = load i32, ptr %9, align 4, !tbaa !45
  %11 = sext i32 %10 to i64
  %12 = getelementptr inbounds ptr, ptr %7, i64 %11
  %13 = load ptr, ptr %12, align 8, !tbaa !37
  ret ptr %13
}

; Function Attrs: inlinehint nounwind uwtable
define internal i32 @Aig_ObjIsNode(ptr noundef %0) #5 {
  %2 = alloca ptr, align 8
  store ptr %0, ptr %2, align 8, !tbaa !44
  %3 = load ptr, ptr %2, align 8, !tbaa !44
  %4 = getelementptr inbounds nuw %struct.Aig_Obj_t_, ptr %3, i32 0, i32 3
  %5 = load i64, ptr %4, align 8
  %6 = and i64 %5, 7
  %7 = trunc i64 %6 to i32
  %8 = icmp eq i32 %7, 5
  br i1 %8, label %16, label %9

9:                                                ; preds = %1
  %10 = load ptr, ptr %2, align 8, !tbaa !44
  %11 = getelementptr inbounds nuw %struct.Aig_Obj_t_, ptr %10, i32 0, i32 3
  %12 = load i64, ptr %11, align 8
  %13 = and i64 %12, 7
  %14 = trunc i64 %13 to i32
  %15 = icmp eq i32 %14, 6
  br label %16

16:                                               ; preds = %9, %1
  %17 = phi i1 [ true, %1 ], [ %15, %9 ]
  %18 = zext i1 %17 to i32
  ret i32 %18
}

; Function Attrs: inlinehint nounwind uwtable
define internal ptr @Vec_PtrEntry(ptr noundef %0, i32 noundef %1) #5 {
  %3 = alloca ptr, align 8
  %4 = alloca i32, align 4
  store ptr %0, ptr %3, align 8, !tbaa !50
  store i32 %1, ptr %4, align 4, !tbaa !8
  %5 = load ptr, ptr %3, align 8, !tbaa !50
  %6 = getelementptr inbounds nuw %struct.Vec_Ptr_t_, ptr %5, i32 0, i32 2
  %7 = load ptr, ptr %6, align 8, !tbaa !53
  %8 = load i32, ptr %4, align 4, !tbaa !8
  %9 = sext i32 %8 to i64
  %10 = getelementptr inbounds ptr, ptr %7, i64 %9
  %11 = load ptr, ptr %10, align 8, !tbaa !54
  ret ptr %11
}

; Function Attrs: inlinehint nounwind uwtable
define internal i32 @Vec_PtrSize(ptr noundef %0) #5 {
  %2 = alloca ptr, align 8
  store ptr %0, ptr %2, align 8, !tbaa !50
  %3 = load ptr, ptr %2, align 8, !tbaa !50
  %4 = getelementptr inbounds nuw %struct.Vec_Ptr_t_, ptr %3, i32 0, i32 1
  %5 = load i32, ptr %4, align 4, !tbaa !51
  ret i32 %5
}

; Function Attrs: nounwind uwtable
define i32 @Aig_ManCutCount(ptr noundef %0, ptr noundef %1) #0 {
  %3 = alloca ptr, align 8
  %4 = alloca ptr, align 8
  %5 = alloca ptr, align 8
  %6 = alloca ptr, align 8
  %7 = alloca i32, align 4
  %8 = alloca i32, align 4
  %9 = alloca i32, align 4
  %10 = alloca i32, align 4
  store ptr %0, ptr %3, align 8, !tbaa !10
  store ptr %1, ptr %4, align 8, !tbaa !24
  call void @llvm.lifetime.start.p0(i64 8, ptr %5) #10
  call void @llvm.lifetime.start.p0(i64 8, ptr %6) #10
  call void @llvm.lifetime.start.p0(i64 4, ptr %7) #10
  call void @llvm.lifetime.start.p0(i64 4, ptr %8) #10
  call void @llvm.lifetime.start.p0(i64 4, ptr %9) #10
  store i32 0, ptr %9, align 4, !tbaa !8
  call void @llvm.lifetime.start.p0(i64 4, ptr %10) #10
  store i32 0, ptr %10, align 4, !tbaa !8
  store i32 0, ptr %7, align 4, !tbaa !8
  br label %11

11:                                               ; preds = %77, %2
  %12 = load i32, ptr %7, align 4, !tbaa !8
  %13 = load ptr, ptr %3, align 8, !tbaa !10
  %14 = getelementptr inbounds nuw %struct.Aig_ManCut_t_, ptr %13, i32 0, i32 0
  %15 = load ptr, ptr %14, align 8, !tbaa !19
  %16 = getelementptr inbounds nuw %struct.Aig_Man_t_, ptr %15, i32 0, i32 4
  %17 = load ptr, ptr %16, align 8, !tbaa !26
  %18 = call i32 @Vec_PtrSize(ptr noundef %17)
  %19 = icmp slt i32 %12, %18
  br i1 %19, label %20, label %28

20:                                               ; preds = %11
  %21 = load ptr, ptr %3, align 8, !tbaa !10
  %22 = getelementptr inbounds nuw %struct.Aig_ManCut_t_, ptr %21, i32 0, i32 0
  %23 = load ptr, ptr %22, align 8, !tbaa !19
  %24 = getelementptr inbounds nuw %struct.Aig_Man_t_, ptr %23, i32 0, i32 4
  %25 = load ptr, ptr %24, align 8, !tbaa !26
  %26 = load i32, ptr %7, align 4, !tbaa !8
  %27 = call ptr @Vec_PtrEntry(ptr noundef %25, i32 noundef %26)
  store ptr %27, ptr %6, align 8, !tbaa !44
  br label %28

28:                                               ; preds = %20, %11
  %29 = phi i1 [ false, %11 ], [ true, %20 ]
  br i1 %29, label %30, label %80

30:                                               ; preds = %28
  %31 = load ptr, ptr %6, align 8, !tbaa !44
  %32 = icmp eq ptr %31, null
  br i1 %32, label %37, label %33

33:                                               ; preds = %30
  %34 = load ptr, ptr %6, align 8, !tbaa !44
  %35 = call i32 @Aig_ObjIsNode(ptr noundef %34)
  %36 = icmp ne i32 %35, 0
  br i1 %36, label %38, label %37

37:                                               ; preds = %33, %30
  br label %76

38:                                               ; preds = %33
  store i32 0, ptr %8, align 4, !tbaa !8
  %39 = load ptr, ptr %3, align 8, !tbaa !10
  %40 = load ptr, ptr %6, align 8, !tbaa !44
  %41 = call ptr @Aig_ObjCuts(ptr noundef %39, ptr noundef %40)
  store ptr %41, ptr %5, align 8, !tbaa !37
  br label %42

42:                                               ; preds = %70, %38
  %43 = load i32, ptr %8, align 4, !tbaa !8
  %44 = load ptr, ptr %3, align 8, !tbaa !10
  %45 = getelementptr inbounds nuw %struct.Aig_ManCut_t_, ptr %44, i32 0, i32 2
  %46 = load i32, ptr %45, align 8, !tbaa !12
  %47 = icmp slt i32 %43, %46
  br i1 %47, label %48, label %75

48:                                               ; preds = %42
  %49 = load ptr, ptr %5, align 8, !tbaa !37
  %50 = getelementptr inbounds nuw %struct.Aig_Cut_t_, ptr %49, i32 0, i32 6
  %51 = load i8, ptr %50, align 1, !tbaa !39
  %52 = sext i8 %51 to i32
  %53 = icmp eq i32 %52, 0
  br i1 %53, label %54, label %55

54:                                               ; preds = %48
  br label %70

55:                                               ; preds = %48
  %56 = load i32, ptr %9, align 4, !tbaa !8
  %57 = add nsw i32 %56, 1
  store i32 %57, ptr %9, align 4, !tbaa !8
  %58 = load ptr, ptr %5, align 8, !tbaa !37
  %59 = getelementptr inbounds nuw %struct.Aig_Cut_t_, ptr %58, i32 0, i32 6
  %60 = load i8, ptr %59, align 1, !tbaa !39
  %61 = sext i8 %60 to i32
  %62 = load ptr, ptr %3, align 8, !tbaa !10
  %63 = getelementptr inbounds nuw %struct.Aig_ManCut_t_, ptr %62, i32 0, i32 3
  %64 = load i32, ptr %63, align 4, !tbaa !16
  %65 = icmp eq i32 %61, %64
  br i1 %65, label %66, label %69

66:                                               ; preds = %55
  %67 = load i32, ptr %10, align 4, !tbaa !8
  %68 = add nsw i32 %67, 1
  store i32 %68, ptr %10, align 4, !tbaa !8
  br label %69

69:                                               ; preds = %66, %55
  br label %70

70:                                               ; preds = %69, %54
  %71 = load i32, ptr %8, align 4, !tbaa !8
  %72 = add nsw i32 %71, 1
  store i32 %72, ptr %8, align 4, !tbaa !8
  %73 = load ptr, ptr %5, align 8, !tbaa !37
  %74 = call ptr @Aig_CutNext(ptr noundef %73)
  store ptr %74, ptr %5, align 8, !tbaa !37
  br label %42, !llvm.loop !48

75:                                               ; preds = %42
  br label %76

76:                                               ; preds = %75, %37
  br label %77

77:                                               ; preds = %76
  %78 = load i32, ptr %7, align 4, !tbaa !8
  %79 = add nsw i32 %78, 1
  store i32 %79, ptr %7, align 4, !tbaa !8
  br label %11, !llvm.loop !49

80:                                               ; preds = %28
  %81 = load ptr, ptr %4, align 8, !tbaa !24
  %82 = icmp ne ptr %81, null
  br i1 %82, label %83, label %86

83:                                               ; preds = %80
  %84 = load i32, ptr %10, align 4, !tbaa !8
  %85 = load ptr, ptr %4, align 8, !tbaa !24
  store i32 %84, ptr %85, align 4, !tbaa !8
  br label %86

86:                                               ; preds = %83, %80
  %87 = load i32, ptr %9, align 4, !tbaa !8
  call void @llvm.lifetime.end.p0(i64 4, ptr %10) #10
  call void @llvm.lifetime.end.p0(i64 4, ptr %9) #10
  call void @llvm.lifetime.end.p0(i64 4, ptr %8) #10
  call void @llvm.lifetime.end.p0(i64 4, ptr %7) #10
  call void @llvm.lifetime.end.p0(i64 8, ptr %6) #10
  call void @llvm.lifetime.end.p0(i64 8, ptr %5) #10
  ret i32 %87
}