; Function Attrs: nofree norecurse nosync nounwind memory(read, argmem: readwrite, inaccessiblemem: none) uwtable
define i32 @Aig_ManCutCount(ptr noundef readonly captures(none) %0, ptr noundef writeonly %1) local_unnamed_addr #9 {
  %3 = load ptr, ptr %0, align 8, !tbaa !15
  %4 = getelementptr inbounds nuw i8, ptr %3, i64 32
  %5 = load ptr, ptr %4, align 8, !tbaa !16
  %6 = getelementptr i8, ptr %5, i64 4
  %.val = load i32, ptr %6, align 4, !tbaa !28
  %7 = icmp sgt i32 %.val, 0
  br i1 %7, label %.lr.ph44, label %.critedge

.lr.ph44:                                         ; preds = %2
  %8 = getelementptr i8, ptr %5, i64 8
  %.val34 = load ptr, ptr %8, align 8, !tbaa !46
  %9 = getelementptr i8, ptr %0, i64 8
  %10 = getelementptr inbounds nuw i8, ptr %0, i64 16
  %11 = getelementptr inbounds nuw i8, ptr %0, i64 20
  %wide.trip.count = zext nneg i32 %.val to i64
  br label %12

12:                                               ; preds = %.lr.ph44, %.loopexit
  %indvars.iv = phi i64 [ 0, %.lr.ph44 ], [ %indvars.iv.next, %.loopexit ]
  %.043 = phi i32 [ 0, %.lr.ph44 ], [ %.3, %.loopexit ]
  %.02142 = phi i32 [ 0, %.lr.ph44 ], [ %.324, %.loopexit ]
  %13 = getelementptr inbounds nuw ptr, ptr %.val34, i64 %indvars.iv
  %14 = load ptr, ptr %13, align 8, !tbaa !47
  %15 = icmp eq ptr %14, null
  br i1 %15, label %.loopexit, label %16

16:                                               ; preds = %12
  %17 = getelementptr i8, ptr %14, i64 24
  %.val35 = load i64, ptr %17, align 8
  %18 = trunc i64 %.val35 to i32
  %19 = and i32 %18, 7
  %20 = add nsw i32 %19, -7
  %narrow.i = icmp ult i32 %20, -2
  br i1 %narrow.i, label %.loopexit, label %21

21:                                               ; preds = %16
  %22 = load i32, ptr %10, align 8, !tbaa !3
  %23 = icmp sgt i32 %22, 0
  br i1 %23, label %.lr.ph.preheader, label %.loopexit

.lr.ph.preheader:                                 ; preds = %21
  %.val32 = load ptr, ptr %9, align 8, !tbaa !30
  %24 = getelementptr i8, ptr %14, i64 36
  %.val33 = load i32, ptr %24, align 4, !tbaa !42
  %25 = sext i32 %.val33 to i64
  %26 = getelementptr inbounds ptr, ptr %.val32, i64 %25
  %27 = load ptr, ptr %26, align 8, !tbaa !43
  br label %.lr.ph

.lr.ph:                                           ; preds = %.lr.ph.preheader, %37
  %.139 = phi i32 [ %.2, %37 ], [ %.043, %.lr.ph.preheader ]
  %.12238 = phi i32 [ %.223, %37 ], [ %.02142, %.lr.ph.preheader ]
  %.02537 = phi i32 [ %38, %37 ], [ 0, %.lr.ph.preheader ]
  %.02736 = phi ptr [ %42, %37 ], [ %27, %.lr.ph.preheader ]
  %28 = getelementptr inbounds nuw i8, ptr %.02736, i64 23
  %29 = load i8, ptr %28, align 1, !tbaa !35
  %30 = icmp eq i8 %29, 0
  br i1 %30, label %37, label %31

31:                                               ; preds = %.lr.ph
  %32 = sext i8 %29 to i32
  %33 = add nsw i32 %.12238, 1
  %34 = load i32, ptr %11, align 4, !tbaa !12
  %35 = icmp eq i32 %34, %32
  %36 = zext i1 %35 to i32
  %spec.select = add nsw i32 %.139, %36
  br label %37

37:                                               ; preds = %31, %.lr.ph
  %.223 = phi i32 [ %.12238, %.lr.ph ], [ %33, %31 ]
  %.2 = phi i32 [ %.139, %.lr.ph ], [ %spec.select, %31 ]
  %38 = add nuw nsw i32 %.02537, 1
  %39 = getelementptr inbounds nuw i8, ptr %.02736, i64 20
  %40 = load i16, ptr %39, align 4, !tbaa !44
  %41 = sext i16 %40 to i64
  %42 = getelementptr inbounds i8, ptr %.02736, i64 %41
  %exitcond.not = icmp eq i32 %38, %22
  br i1 %exitcond.not, label %.loopexit, label %.lr.ph, !llvm.loop !48

.loopexit:                                        ; preds = %37, %21, %16, %12
  %.324 = phi i32 [ %.02142, %12 ], [ %.02142, %16 ], [ %.02142, %21 ], [ %.223, %37 ]
  %.3 = phi i32 [ %.043, %12 ], [ %.043, %16 ], [ %.043, %21 ], [ %.2, %37 ]
  %indvars.iv.next = add nuw nsw i64 %indvars.iv, 1
  %exitcond48.not = icmp eq i64 %indvars.iv.next, %wide.trip.count
  br i1 %exitcond48.not, label %.critedge, label %12, !llvm.loop !49

.critedge:                                        ; preds = %.loopexit, %2
  %.021.lcssa = phi i32 [ 0, %2 ], [ %.324, %.loopexit ]
  %.0.lcssa = phi i32 [ 0, %2 ], [ %.3, %.loopexit ]
  %.not = icmp eq ptr %1, null
  br i1 %.not, label %44, label %43

43:                                               ; preds = %.critedge
  store i32 %.0.lcssa, ptr %1, align 4, !tbaa !39
  br label %44

44:                                               ; preds = %43, %.critedge
  ret i32 %.021.lcssa
}